target datalayout = "e-m:e-p270:32:32-p271:32:32-p272:64:64-i64:64-i128:128-f80:128-n8:16:32:64-S128"
target triple = "x86_64-pc-linux-gnu"

@.str = private unnamed_addr constant [22 x i8] c"qemu_in_main_thread()\00", align 1
@.str.1 = private unnamed_addr constant [19 x i8] c"../qemu/blockjob.c\00", align 1
@__PRETTY_FUNCTION__.block_job_get_locked = private unnamed_addr constant [45 x i8] c"BlockJob *block_job_get_locked(const char *)\00", align 1

; Function Attrs: nounwind sspstrong uwtable
define internal zeroext i1 @is_block_job(ptr noundef %0) #0 {
  %2 = alloca ptr, align 8
  store ptr %0, ptr %2, align 8
  %3 = load ptr, ptr %2, align 8
  %4 = call i32 @job_type(ptr noundef %3)
  %5 = icmp eq i32 %4, 3
  br i1 %5, label %18, label %6

6:                                                ; preds = %1
  %7 = load ptr, ptr %2, align 8
  %8 = call i32 @job_type(ptr noundef %7)
  %9 = icmp eq i32 %8, 0
  br i1 %9, label %18, label %10

10:                                               ; preds = %6
  %11 = load ptr, ptr %2, align 8
  %12 = call i32 @job_type(ptr noundef %11)
  %13 = icmp eq i32 %12, 2
  br i1 %13, label %18, label %14

14:                                               ; preds = %10
  %15 = load ptr, ptr %2, align 8
  %16 = call i32 @job_type(ptr noundef %15)
  %17 = icmp eq i32 %16, 1
  br label %18

18:                                               ; preds = %14, %10, %6, %1
  %19 = phi i1 [ true, %10 ], [ true, %6 ], [ true, %1 ], [ %17, %14 ]
  ret i1 %19
}

; Function Attrs: nounwind sspstrong uwtable
define dso_local ptr @block_job_get_locked(ptr noundef %0) #0 {
  %2 = alloca ptr, align 8
  %3 = alloca ptr, align 8
  %4 = alloca ptr, align 8
  %5 = alloca ptr, align 8
  %6 = alloca ptr, align 8
  %7 = alloca i32, align 4
  store ptr %0, ptr %3, align 8
  call void @llvm.lifetime.start.p0(i64 8, ptr %4) #12
  %8 = load ptr, ptr %3, align 8
  %9 = call ptr @job_get_locked(ptr noundef %8)
  store ptr %9, ptr %4, align 8
  br label %10

10:                                               ; preds = %1
  %11 = call zeroext i1 @qemu_in_main_thread()
  br i1 %11, label %12, label %13

12:                                               ; preds = %10
  br label %14

13:                                               ; preds = %10
  call void @__assert_fail(ptr noundef @.str, ptr noundef @.str.1, i32 noundef 62, ptr noundef @__PRETTY_FUNCTION__.block_job_get_locked) #13
  unreachable

14:                                               ; preds = %12
  br label %15

15:                                               ; preds = %14
  br label %16

16:                                               ; preds = %15
  %17 = load ptr, ptr %4, align 8
  %18 = icmp ne ptr %17, null
  br i1 %18, label %19, label %27

19:                                               ; preds = %16
  %20 = load ptr, ptr %4, align 8
  %21 = call zeroext i1 @is_block_job(ptr noundef %20)
  br i1 %21, label %22, label %27

22:                                               ; preds = %19
  call void @llvm.lifetime.start.p0(i64 8, ptr %5) #12
  %23 = load ptr, ptr %4, align 8
  store ptr %23, ptr %5, align 8
  %24 = load ptr, ptr %5, align 8
  %25 = getelementptr inbounds i8, ptr %24, i64 0
  store ptr %25, ptr %6, align 8
  call void @llvm.lifetime.end.p0(i64 8, ptr %5) #12
  %26 = load ptr, ptr %6, align 8
  store ptr %26, ptr %2, align 8
  store i32 1, ptr %7, align 4
  br label %28

27:                                               ; preds = %19, %16
  store ptr null, ptr %2, align 8
  store i32 1, ptr %7, align 4
  br label %28

28:                                               ; preds = %27, %22
  call void @llvm.lifetime.end.p0(i64 8, ptr %4) #12
  %29 = load ptr, ptr %2, align 8
  ret ptr %29
}