; Function Attrs: nounwind sspstrong uwtable
define dso_local ptr @block_job_get_locked(ptr noundef %0) local_unnamed_addr #0 {
  %2 = tail call ptr @job_get_locked(ptr noundef %0) #8
  %3 = tail call zeroext i1 @qemu_in_main_thread() #8
  br i1 %3, label %5, label %4

4:                                                ; preds = %1
  tail call void @__assert_fail(ptr noundef nonnull @.str, ptr noundef nonnull @.str.1, i32 noundef 62, ptr noundef nonnull @__PRETTY_FUNCTION__.block_job_get_locked) #9
  unreachable

5:                                                ; preds = %1
  %.not = icmp eq ptr %2, null
  br i1 %.not, label %17, label %6

6:                                                ; preds = %5
  %7 = tail call i32 @job_type(ptr noundef nonnull %2) #8
  %8 = icmp eq i32 %7, 3
  br i1 %8, label %is_block_job.exit.thread, label %9

9:                                                ; preds = %6
  %10 = tail call i32 @job_type(ptr noundef nonnull %2) #8
  %11 = icmp eq i32 %10, 0
  br i1 %11, label %is_block_job.exit.thread, label %12

12:                                               ; preds = %9
  %13 = tail call i32 @job_type(ptr noundef nonnull %2) #8
  %14 = icmp eq i32 %13, 2
  br i1 %14, label %is_block_job.exit.thread, label %is_block_job.exit

is_block_job.exit:                                ; preds = %12
  %15 = tail call i32 @job_type(ptr noundef nonnull %2) #8
  %16 = icmp eq i32 %15, 1
  br i1 %16, label %is_block_job.exit.thread, label %17

17:                                               ; preds = %is_block_job.exit, %5
  br label %is_block_job.exit.thread

is_block_job.exit.thread:                         ; preds = %6, %9, %12, %is_block_job.exit, %17
  %.0 = phi ptr [ null, %17 ], [ %2, %is_block_job.exit ], [ %2, %12 ], [ %2, %9 ], [ %2, %6 ]
  ret ptr %.0
}